; ModuleID = '15/60.c'
source_filename = "15/60.c"
target datalayout = "e-m:e-p270:32:32-p271:32:32-p272:64:64-i64:64-f80:128-n8:16:32:64-S128"
target triple = "x86_64-pc-linux-gnu"

@.str = private unnamed_addr constant [3 x i8] c"%d\00", align 1

; Function Attrs: noinline nounwind uwtable
define dso_local i32 @main(i32 %0, i8** %1) #0 {
  %3 = alloca i32, align 4
  %4 = alloca i32, align 4
  %5 = alloca i8**, align 8
  %6 = alloca i32, align 4
  %7 = alloca i32, align 4
  %8 = alloca i32, align 4
  %9 = alloca [100 x [100 x i32]], align 16
  %10 = alloca i32, align 4
  %11 = alloca i32, align 4
  %12 = alloca i32, align 4
  %13 = alloca i32, align 4
  %14 = alloca i32, align 4
  %15 = alloca i32, align 4
  %16 = alloca i32, align 4
  store i32 0, i32* %3, align 4
  store i32 %0, i32* %4, align 4
  store i8** %1, i8*** %5, align 8
  %17 = call i32 (i8*, ...) @__isoc99_scanf(i8* getelementptr inbounds ([3 x i8], [3 x i8]* @.str, i64 0, i64 0), i32* %6)
  store i32 0, i32* %7, align 4
  br label %18

18:                                               ; preds = %39, %2
  %19 = load i32, i32* %7, align 4
  %20 = load i32, i32* %6, align 4
  %21 = icmp slt i32 %19, %20
  br i1 %21, label %22, label %42

22:                                               ; preds = %18
  store i32 0, i32* %8, align 4
  br label %23

23:                                               ; preds = %35, %22
  %24 = load i32, i32* %8, align 4
  %25 = load i32, i32* %6, align 4
  %26 = icmp slt i32 %24, %25
  br i1 %26, label %27, label %38

27:                                               ; preds = %23
  %28 = load i32, i32* %7, align 4
  %29 = sext i32 %28 to i64
  %30 = getelementptr inbounds [100 x [100 x i32]], [100 x [100 x i32]]* %9, i64 0, i64 %29
  %31 = load i32, i32* %8, align 4
  %32 = sext i32 %31 to i64
  %33 = getelementptr inbounds [100 x i32], [100 x i32]* %30, i64 0, i64 %32
  %34 = call i32 (i8*, ...) @__isoc99_scanf(i8* getelementptr inbounds ([3 x i8], [3 x i8]* @.str, i64 0, i64 0), i32* %33)
  br label %35

35:                                               ; preds = %27
  %36 = load i32, i32* %8, align 4
  %37 = add nsw i32 %36, 1
  store i32 %37, i32* %8, align 4
  br label %23

38:                                               ; preds = %23
  br label %39

39:                                               ; preds = %38
  %40 = load i32, i32* %7, align 4
  %41 = add nsw i32 %40, 1
  store i32 %41, i32* %7, align 4
  br label %18

42:                                               ; preds = %18
  store i32 0, i32* %7, align 4
  br label %43

43:                                               ; preds = %69, %42
  %44 = load i32, i32* %7, align 4
  %45 = load i32, i32* %6, align 4
  %46 = icmp slt i32 %44, %45
  br i1 %46, label %47, label %72

47:                                               ; preds = %43
  store i32 0, i32* %8, align 4
  br label %48

48:                                               ; preds = %65, %47
  %49 = load i32, i32* %8, align 4
  %50 = load i32, i32* %6, align 4
  %51 = icmp slt i32 %49, %50
  br i1 %51, label %52, label %68

52:                                               ; preds = %48
  %53 = load i32, i32* %7, align 4
  %54 = sext i32 %53 to i64
  %55 = getelementptr inbounds [100 x [100 x i32]], [100 x [100 x i32]]* %9, i64 0, i64 %54
  %56 = load i32, i32* %8, align 4
  %57 = sext i32 %56 to i64
  %58 = getelementptr inbounds [100 x i32], [100 x i32]* %55, i64 0, i64 %57
  %59 = load i32, i32* %58, align 4
  %60 = icmp eq i32 %59, 0
  br i1 %60, label %61, label %64

61:                                               ; preds = %52
  %62 = load i32, i32* %7, align 4
  store i32 %62, i32* %10, align 4
  %63 = load i32, i32* %8, align 4
  store i32 %63, i32* %12, align 4
  br label %64

64:                                               ; preds = %61, %52
  br label %65

65:                                               ; preds = %64
  %66 = load i32, i32* %8, align 4
  %67 = add nsw i32 %66, 1
  store i32 %67, i32* %8, align 4
  br label %48

68:                                               ; preds = %48
  br label %69

69:                                               ; preds = %68
  %70 = load i32, i32* %7, align 4
  %71 = add nsw i32 %70, 1
  store i32 %71, i32* %7, align 4
  br label %43

72:                                               ; preds = %43
  %73 = load i32, i32* %6, align 4
  %74 = sub nsw i32 %73, 1
  store i32 %74, i32* %7, align 4
  br label %75

75:                                               ; preds = %101, %72
  %76 = load i32, i32* %7, align 4
  %77 = icmp sge i32 %76, 0
  br i1 %77, label %78, label %104

78:                                               ; preds = %75
  %79 = load i32, i32* %6, align 4
  %80 = sub nsw i32 %79, 1
  store i32 %80, i32* %8, align 4
  br label %81

81:                                               ; preds = %97, %78
  %82 = load i32, i32* %8, align 4
  %83 = icmp sge i32 %82, 0
  br i1 %83, label %84, label %100

84:                                               ; preds = %81
  %85 = load i32, i32* %7, align 4
  %86 = sext i32 %85 to i64
  %87 = getelementptr inbounds [100 x [100 x i32]], [100 x [100 x i32]]* %9, i64 0, i64 %86
  %88 = load i32, i32* %8, align 4
  %89 = sext i32 %88 to i64
  %90 = getelementptr inbounds [100 x i32], [100 x i32]* %87, i64 0, i64 %89
  %91 = load i32, i32* %90, align 4
  %92 = icmp eq i32 %91, 0
  br i1 %92, label %93, label %96

93:                                               ; preds = %84
  %94 = load i32, i32* %7, align 4
  store i32 %94, i32* %11, align 4
  %95 = load i32, i32* %8, align 4
  store i32 %95, i32* %13, align 4
  br label %96

96:                                               ; preds = %93, %84
  br label %97

97:                                               ; preds = %96
  %98 = load i32, i32* %8, align 4
  %99 = add nsw i32 %98, -1
  store i32 %99, i32* %8, align 4
  br label %81

100:                                              ; preds = %81
  br label %101

101:                                              ; preds = %100
  %102 = load i32, i32* %7, align 4
  %103 = add nsw i32 %102, -1
  store i32 %103, i32* %7, align 4
  br label %75

104:                                              ; preds = %75
  %105 = load i32, i32* %10, align 4
  %106 = load i32, i32* %11, align 4
  %107 = sub nsw i32 %105, %106
  %108 = sub nsw i32 %107, 1
  store i32 %108, i32* %14, align 4
  %109 = load i32, i32* %12, align 4
  %110 = load i32, i32* %13, align 4
  %111 = sub nsw i32 %109, %110
  %112 = sub nsw i32 %111, 1
  store i32 %112, i32* %15, align 4
  %113 = load i32, i32* %14, align 4
  %114 = load i32, i32* %15, align 4
  %115 = mul nsw i32 %113, %114
  store i32 %115, i32* %16, align 4
  %116 = load i32, i32* %16, align 4
  %117 = call i32 (i8*, ...) @printf(i8* getelementptr inbounds ([3 x i8], [3 x i8]* @.str, i64 0, i64 0), i32 %116)
  ret i32 0
}

declare dso_local i32 @__isoc99_scanf(i8*, ...) #1

declare dso_local i32 @printf(i8*, ...) #1


!llvm.module.flags = !{!0}
!llvm.ident = !{!1}

!0 = !{i32 1, !"wchar_size", i32 4}
!1 = !{!"clang version 10.0.0-4ubuntu1 "}
